; Function Attrs: mustprogress uwtable
define void @_ZN3zmq7epoll_tC2ERKNS_12thread_ctx_tE(ptr noundef nonnull align 8 dereferenceable(224) %this, ptr noundef nonnull align 8 dereferenceable(136) %ctx_) unnamed_addr #0 align 2 personality ptr @__gxx_personality_v0 {
entry:
  tail call void @_ZN3zmq20worker_poller_base_tC2ERKNS_12thread_ctx_tE(ptr noundef nonnull align 8 dereferenceable(192) %this, ptr noundef nonnull align 8 dereferenceable(136) %ctx_)
  store ptr getelementptr inbounds ({ [5 x ptr] }, ptr @_ZTVN3zmq7epoll_tE, i64 0, i32 0, i64 2), ptr %this, align 8
  %_retired = getelementptr inbounds i8, ptr %this, i64 200
  tail call void @llvm.memset.p0.i64(ptr noundef nonnull align 8 dereferenceable(24) %_retired, i8 0, i64 24, i1 false)
  %call = tail call i32 @epoll_create1(i32 noundef 524288) #16
  %_epoll_fd = getelementptr inbounds i8, ptr %this, i64 192
  store i32 %call, ptr %_epoll_fd, align 8
  %cmp.not = icmp eq i32 %call, -1
  br i1 %cmp.not, label %if.then, label %do.end

if.then:                                          ; preds = %entry
  %call3 = tail call ptr @__errno_location() #17
  %0 = load i32, ptr %call3, align 4
  %call4 = tail call ptr @strerror(i32 noundef %0) #16
  %1 = load ptr, ptr @stderr, align 8
  %call5 = tail call i32 (ptr, ptr, ...) @fprintf(ptr noundef %1, ptr noundef nonnull @.str, ptr noundef %call4, ptr noundef nonnull @.str.1, i32 noundef 38) #18
  %2 = load ptr, ptr @stderr, align 8
  %call7 = tail call i32 @fflush(ptr noundef %2)
  invoke void @_ZN3zmq9zmq_abortEPKc(ptr noundef %call4)
          to label %do.end unwind label %lpad

lpad:                                             ; preds = %if.then
  %3 = landingpad { ptr, i32 }
          cleanup
  %4 = load ptr, ptr %_retired, align 8
  %tobool.not.i.i.i = icmp eq ptr %4, null
  br i1 %tobool.not.i.i.i, label %_ZNSt6vectorIPN3zmq7epoll_t12poll_entry_tESaIS3_EED2Ev.exit, label %if.then.i.i.i

if.then.i.i.i:                                    ; preds = %lpad
  tail call void @_ZdlPv(ptr noundef nonnull %4) #19
  br label %_ZNSt6vectorIPN3zmq7epoll_t12poll_entry_tESaIS3_EED2Ev.exit

_ZNSt6vectorIPN3zmq7epoll_t12poll_entry_tESaIS3_EED2Ev.exit: ; preds = %lpad, %if.then.i.i.i
  tail call void @_ZN3zmq20worker_poller_base_tD2Ev(ptr noundef nonnull align 8 dereferenceable(192) %this) #16
  resume { ptr, i32 } %3

do.end:                                           ; preds = %if.then, %entry
  ret void
}